; Function Attrs: mustprogress nofree norecurse nosync nounwind sspstrong willreturn memory(read, inaccessiblemem: none) uwtable
define internal { i64, i32 } @msix_prepare_message(ptr noundef readonly captures(none) %dev, i32 noundef %vector) #4 {
entry:
  %msix_table = getelementptr inbounds nuw i8, ptr %dev, i64 1272
  %0 = load ptr, ptr %msix_table, align 8
  %mul = shl i32 %vector, 4
  %idx.ext = zext i32 %mul to i64
  %add.ptr = getelementptr i8, ptr %0, i64 %idx.ext
  %add.ptr.val = load i64, ptr %add.ptr, align 1
  %add.ptr2 = getelementptr i8, ptr %add.ptr, i64 8
  %add.ptr2.val = load i32, ptr %add.ptr2, align 1
  %.fca.0.insert = insertvalue { i64, i32 } poison, i64 %add.ptr.val, 0
  %.fca.1.insert = insertvalue { i64, i32 } %.fca.0.insert, i32 %add.ptr2.val, 1
  ret { i64, i32 } %.fca.1.insert
}